; Function Attrs: mustprogress uwtable
define void @_ZN2cv18GStreamingCompiled9setSourceERKSt10shared_ptrINS_4gapi3wip13IStreamSourceEE(ptr noundef nonnull readonly align 8 captures(none) dereferenceable(16) %0, ptr noundef nonnull align 8 dereferenceable(16) %1) local_unnamed_addr #3 align 2 personality ptr @__gxx_personality_v0 {
  %3 = alloca %"class.std::vector.7", align 8
  call void @llvm.lifetime.start.p0(i64 24, ptr nonnull %3) #24
  call void @_ZN2cv3ginIJSt10shared_ptrINS_4gapi3wip13IStreamSourceEEEEESt6vectorINS_7GRunArgESaIS7_EEDpRKT_(ptr dead_on_unwind nonnull writable sret(%"class.std::vector.7") align 8 %3, ptr noundef nonnull align 8 dereferenceable(16) %1)
  %4 = load ptr, ptr %0, align 8, !tbaa !31
  invoke void @_ZN2cv18GStreamingCompiled4Priv9setSourceEOSt6vectorINS_7GRunArgESaIS3_EE(ptr noundef nonnull align 8 dereferenceable(104) %4, ptr noundef nonnull align 8 dereferenceable(24) %3)
          to label %_ZN2cv18GStreamingCompiled9setSourceEOSt6vectorINS_7GRunArgESaIS2_EE.exit unwind label %13

_ZN2cv18GStreamingCompiled9setSourceEOSt6vectorINS_7GRunArgESaIS2_EE.exit: ; preds = %2
  %5 = load ptr, ptr %3, align 8, !tbaa !52
  %6 = getelementptr inbounds nuw i8, ptr %3, i64 8
  %7 = load ptr, ptr %6, align 8, !tbaa !55
  invoke void @_ZNSt12_Destroy_auxILb0EE9__destroyIPN2cv7GRunArgEEEvT_S5_(ptr noundef %5, ptr noundef %7)
          to label %_ZSt8_DestroyIPN2cv7GRunArgES1_EvT_S3_RSaIT0_E.exit.i unwind label %10

_ZSt8_DestroyIPN2cv7GRunArgES1_EvT_S3_RSaIT0_E.exit.i: ; preds = %_ZN2cv18GStreamingCompiled9setSourceEOSt6vectorINS_7GRunArgESaIS2_EE.exit
  %8 = load ptr, ptr %3, align 8, !tbaa !52
  %.not.i.i.i = icmp eq ptr %8, null
  br i1 %.not.i.i.i, label %_ZNSt6vectorIN2cv7GRunArgESaIS1_EED2Ev.exit, label %9

9:                                                ; preds = %_ZSt8_DestroyIPN2cv7GRunArgES1_EvT_S3_RSaIT0_E.exit.i
  call void @_ZdlPv(ptr noundef nonnull %8) #26
  br label %_ZNSt6vectorIN2cv7GRunArgESaIS1_EED2Ev.exit

10:                                               ; preds = %_ZN2cv18GStreamingCompiled9setSourceEOSt6vectorINS_7GRunArgESaIS2_EE.exit
  %11 = landingpad { ptr, i32 }
          catch ptr null
  %12 = extractvalue { ptr, i32 } %11, 0
  call void @__clang_call_terminate(ptr %12) #25
  unreachable

_ZNSt6vectorIN2cv7GRunArgESaIS1_EED2Ev.exit:      ; preds = %_ZSt8_DestroyIPN2cv7GRunArgES1_EvT_S3_RSaIT0_E.exit.i, %9
  call void @llvm.lifetime.end.p0(i64 24, ptr nonnull %3) #24
  ret void

13:                                               ; preds = %2
  %14 = landingpad { ptr, i32 }
          cleanup
  call void @_ZNSt6vectorIN2cv7GRunArgESaIS1_EED2Ev(ptr noundef nonnull align 8 dereferenceable(24) %3) #24
  call void @llvm.lifetime.end.p0(i64 24, ptr nonnull %3) #24
  resume { ptr, i32 } %14
}